; Function Attrs: nounwind uwtable
define dso_local i32 @multi_sort_compare_dims(i32 noundef %0, i32 noundef %1, ptr noundef readonly captures(none) %2, ptr noundef readonly captures(none) %3, ptr noundef %4) local_unnamed_addr #0 {
  %.not30 = icmp sgt i32 %0, %1
  br i1 %.not30, label %ApplySortComparator.exit.thread, label %.lr.ph

.lr.ph:                                           ; preds = %5
  %6 = getelementptr inbounds nuw i8, ptr %2, i64 8
  %7 = getelementptr inbounds nuw i8, ptr %3, i64 8
  %8 = getelementptr inbounds nuw i8, ptr %4, i64 8
  br label %9

9:                                                ; preds = %.lr.ph, %ApplySortComparator.exit.thread24
  %.01831 = phi i32 [ %0, %.lr.ph ], [ %46, %ApplySortComparator.exit.thread24 ]
  %10 = load ptr, ptr %2, align 8
  %11 = sext i32 %.01831 to i64
  %12 = getelementptr inbounds i64, ptr %10, i64 %11
  %13 = load i64, ptr %12, align 8
  %14 = load ptr, ptr %6, align 8
  %15 = getelementptr inbounds i8, ptr %14, i64 %11
  %16 = load i8, ptr %15, align 1, !range !8, !noundef !9
  %17 = trunc nuw i8 %16 to i1
  %18 = load ptr, ptr %3, align 8
  %19 = getelementptr inbounds i64, ptr %18, i64 %11
  %20 = load i64, ptr %19, align 8
  %21 = load ptr, ptr %7, align 8
  %22 = getelementptr inbounds i8, ptr %21, i64 %11
  %23 = load i8, ptr %22, align 1, !range !8, !noundef !9
  %24 = trunc nuw i8 %23 to i1
  %25 = getelementptr inbounds [0 x %struct.SortSupportData], ptr %8, i64 0, i64 %11
  br i1 %17, label %26, label %31

26:                                               ; preds = %9
  br i1 %24, label %ApplySortComparator.exit.thread24, label %27

27:                                               ; preds = %26
  %28 = getelementptr inbounds nuw i8, ptr %25, i64 13
  %29 = load i8, ptr %28, align 1, !range !8, !noundef !9
  %30 = trunc nuw i8 %29 to i1
  %..i = select i1 %30, i32 -1, i32 1
  br label %ApplySortComparator.exit.thread

31:                                               ; preds = %9
  br i1 %24, label %32, label %36

32:                                               ; preds = %31
  %33 = getelementptr inbounds nuw i8, ptr %25, i64 13
  %34 = load i8, ptr %33, align 1, !range !8, !noundef !9
  %35 = trunc nuw i8 %34 to i1
  %.12.i = select i1 %35, i32 1, i32 -1
  br label %ApplySortComparator.exit.thread

36:                                               ; preds = %31
  %37 = getelementptr inbounds nuw i8, ptr %25, i64 24
  %38 = load ptr, ptr %37, align 8
  %39 = tail call i32 %38(i64 noundef %13, i64 noundef %20, ptr noundef nonnull %25) #10
  %40 = getelementptr inbounds nuw i8, ptr %25, i64 12
  %41 = load i8, ptr %40, align 4, !range !8, !noundef !9
  %42 = trunc nuw i8 %41 to i1
  br i1 %42, label %43, label %ApplySortComparator.exit

43:                                               ; preds = %36
  %44 = icmp slt i32 %39, 0
  %45 = sub nsw i32 0, %39
  br i1 %44, label %ApplySortComparator.exit.thread, label %ApplySortComparator.exit

ApplySortComparator.exit:                         ; preds = %43, %36
  %.0.i = phi i32 [ %45, %43 ], [ %39, %36 ]
  %.not20 = icmp eq i32 %.0.i, 0
  br i1 %.not20, label %ApplySortComparator.exit.thread24, label %ApplySortComparator.exit.thread

ApplySortComparator.exit.thread24:                ; preds = %26, %ApplySortComparator.exit
  %46 = add i32 %.01831, 1
  %.not = icmp sgt i32 %46, %1
  br i1 %.not, label %ApplySortComparator.exit.thread, label %9, !llvm.loop !30

ApplySortComparator.exit.thread:                  ; preds = %ApplySortComparator.exit, %ApplySortComparator.exit.thread24, %43, %5, %32, %27
  %.2 = phi i32 [ %.12.i, %32 ], [ %..i, %27 ], [ 0, %5 ], [ %.0.i, %ApplySortComparator.exit ], [ 0, %ApplySortComparator.exit.thread24 ], [ 1, %43 ]
  ret i32 %.2
}